; Function Attrs: mustprogress uwtable
define void @_ZN10PacketList19setColumnVisibilityEv(ptr noundef nonnull align 8 dereferenceable(464) %0) local_unnamed_addr #0 align 2 {
  %2 = getelementptr inbounds i8, ptr %0, i64 371
  store i8 1, ptr %2, align 1
  %3 = load i32, ptr getelementptr inbounds (%struct._e_prefs, ptr @prefs, i64 0, i32 1), align 8
  %4 = icmp sgt i32 %3, 0
  br i1 %4, label %.lr.ph, label %._crit_edge

.lr.ph:                                           ; preds = %1, %.lr.ph
  %.04 = phi i32 [ %6, %.lr.ph ], [ 0, %1 ]
  %5 = tail call i32 @get_column_visible(i32 noundef %.04)
  %.not = icmp eq i32 %5, 0
  tail call void @_ZN9QTreeView15setColumnHiddenEib(ptr noundef nonnull align 8 dereferenceable(40) %0, i32 noundef %.04, i1 noundef zeroext %.not)
  %6 = add nuw nsw i32 %.04, 1
  %7 = load i32, ptr getelementptr inbounds (%struct._e_prefs, ptr @prefs, i64 0, i32 1), align 8
  %8 = icmp slt i32 %6, %7
  br i1 %8, label %.lr.ph, label %._crit_edge, !llvm.loop !4

._crit_edge:                                      ; preds = %.lr.ph, %1
  store i8 0, ptr %2, align 1
  ret void
}